target datalayout = "e-m:e-p270:32:32-p271:32:32-p272:64:64-i64:64-i128:128-f80:128-n8:16:32:64-S128"
target triple = "x86_64-pc-linux-gnu"

@.str.2 = private unnamed_addr constant [13 x i8] c"arrayfuncs.c\00", align 1
@.str.27 = private unnamed_addr constant [51 x i8] c"type %u not supported by construct_array_builtin()\00", align 1
@__func__.construct_array_builtin = private unnamed_addr constant [24 x i8] c"construct_array_builtin\00", align 1

; Function Attrs: nounwind uwtable
define dso_local ptr @construct_array(ptr noundef %0, i32 noundef %1, i32 noundef %2, i32 noundef %3, i1 noundef zeroext %4, i8 noundef signext %5) #0 {
  %7 = alloca ptr, align 8
  %8 = alloca i32, align 4
  %9 = alloca i32, align 4
  %10 = alloca i32, align 4
  %11 = alloca i8, align 1
  %12 = alloca i8, align 1
  %13 = alloca [1 x i32], align 4
  %14 = alloca [1 x i32], align 4
  store ptr %0, ptr %7, align 8
  store i32 %1, ptr %8, align 4
  store i32 %2, ptr %9, align 4
  store i32 %3, ptr %10, align 4
  %15 = zext i1 %4 to i8
  store i8 %15, ptr %11, align 1
  store i8 %5, ptr %12, align 1
  call void @llvm.lifetime.start.p0(i64 4, ptr %13) #11
  call void @llvm.lifetime.start.p0(i64 4, ptr %14) #11
  %16 = load i32, ptr %8, align 4
  %17 = getelementptr inbounds [1 x i32], ptr %13, i64 0, i64 0
  store i32 %16, ptr %17, align 4
  %18 = getelementptr inbounds [1 x i32], ptr %14, i64 0, i64 0
  store i32 1, ptr %18, align 4
  %19 = load ptr, ptr %7, align 8
  %20 = getelementptr inbounds [1 x i32], ptr %13, i64 0, i64 0
  %21 = getelementptr inbounds [1 x i32], ptr %14, i64 0, i64 0
  %22 = load i32, ptr %9, align 4
  %23 = load i32, ptr %10, align 4
  %24 = load i8, ptr %11, align 1, !range !4, !noundef !5
  %25 = trunc i8 %24 to i1
  %26 = load i8, ptr %12, align 1
  %27 = call ptr @construct_md_array(ptr noundef %19, ptr noundef null, i32 noundef 1, ptr noundef %20, ptr noundef %21, i32 noundef %22, i32 noundef %23, i1 noundef zeroext %25, i8 noundef signext %26)
  call void @llvm.lifetime.end.p0(i64 4, ptr %14) #11
  call void @llvm.lifetime.end.p0(i64 4, ptr %13) #11
  ret ptr %27
}

; Function Attrs: nounwind uwtable
define dso_local ptr @construct_array_builtin(ptr noundef %0, i32 noundef %1, i32 noundef %2) #0 {
  %4 = alloca ptr, align 8
  %5 = alloca i32, align 4
  %6 = alloca i32, align 4
  %7 = alloca i32, align 4
  %8 = alloca i8, align 1
  %9 = alloca i8, align 1
  store ptr %0, ptr %4, align 8
  store i32 %1, ptr %5, align 4
  store i32 %2, ptr %6, align 4
  call void @llvm.lifetime.start.p0(i64 4, ptr %7) #11
  call void @llvm.lifetime.start.p0(i64 1, ptr %8) #11
  call void @llvm.lifetime.start.p0(i64 1, ptr %9) #11
  %10 = load i32, ptr %6, align 4
  switch i32 %10, label %23 [
    i32 18, label %11
    i32 2275, label %12
    i32 700, label %13
    i32 701, label %14
    i32 21, label %15
    i32 23, label %16
    i32 20, label %17
    i32 19, label %18
    i32 26, label %19
    i32 2206, label %19
    i32 25, label %20
    i32 27, label %21
    i32 28, label %22
  ]

11:                                               ; preds = %3
  store i32 1, ptr %7, align 4
  store i8 1, ptr %8, align 1
  store i8 99, ptr %9, align 1
  br label %35

12:                                               ; preds = %3
  store i32 -2, ptr %7, align 4
  store i8 0, ptr %8, align 1
  store i8 99, ptr %9, align 1
  br label %35

13:                                               ; preds = %3
  store i32 4, ptr %7, align 4
  store i8 1, ptr %8, align 1
  store i8 105, ptr %9, align 1
  br label %35

14:                                               ; preds = %3
  store i32 8, ptr %7, align 4
  store i8 1, ptr %8, align 1
  store i8 100, ptr %9, align 1
  br label %35

15:                                               ; preds = %3
  store i32 2, ptr %7, align 4
  store i8 1, ptr %8, align 1
  store i8 115, ptr %9, align 1
  br label %35

16:                                               ; preds = %3
  store i32 4, ptr %7, align 4
  store i8 1, ptr %8, align 1
  store i8 105, ptr %9, align 1
  br label %35

17:                                               ; preds = %3
  store i32 8, ptr %7, align 4
  store i8 1, ptr %8, align 1
  store i8 100, ptr %9, align 1
  br label %35

18:                                               ; preds = %3
  store i32 64, ptr %7, align 4
  store i8 0, ptr %8, align 1
  store i8 99, ptr %9, align 1
  br label %35

19:                                               ; preds = %3, %3
  store i32 4, ptr %7, align 4
  store i8 1, ptr %8, align 1
  store i8 105, ptr %9, align 1
  br label %35

20:                                               ; preds = %3
  store i32 -1, ptr %7, align 4
  store i8 0, ptr %8, align 1
  store i8 105, ptr %9, align 1
  br label %35

21:                                               ; preds = %3
  store i32 6, ptr %7, align 4
  store i8 0, ptr %8, align 1
  store i8 115, ptr %9, align 1
  br label %35

22:                                               ; preds = %3
  store i32 4, ptr %7, align 4
  store i8 1, ptr %8, align 1
  store i8 105, ptr %9, align 1
  br label %35

23:                                               ; preds = %3
  br label %24

24:                                               ; preds = %23
  br i1 true, label %25, label %27

25:                                               ; preds = %24
  %26 = call zeroext i1 @errstart_cold(i32 noundef 21, ptr noundef null) #13
  br i1 %26, label %29, label %32

27:                                               ; preds = %24
  %28 = call zeroext i1 @errstart(i32 noundef 21, ptr noundef null)
  br i1 %28, label %29, label %32

29:                                               ; preds = %27, %25
  %30 = load i32, ptr %6, align 4
  %31 = call i32 (ptr, ...) @errmsg_internal(ptr noundef @.str.27, i32 noundef %30)
  call void @errfinish(ptr noundef @.str.2, i32 noundef 3463, ptr noundef @__func__.construct_array_builtin)
  br label %32

32:                                               ; preds = %29, %27, %25
  unreachable

33:                                               ; No predecessors!
  br label %34

34:                                               ; preds = %33
  store i32 0, ptr %7, align 4
  store i8 0, ptr %8, align 1
  store i8 0, ptr %9, align 1
  br label %35

35:                                               ; preds = %34, %22, %21, %20, %19, %18, %17, %16, %15, %14, %13, %12, %11
  %36 = load ptr, ptr %4, align 8
  %37 = load i32, ptr %5, align 4
  %38 = load i32, ptr %6, align 4
  %39 = load i32, ptr %7, align 4
  %40 = load i8, ptr %8, align 1, !range !4, !noundef !5
  %41 = trunc i8 %40 to i1
  %42 = load i8, ptr %9, align 1
  %43 = call ptr @construct_array(ptr noundef %36, i32 noundef %37, i32 noundef %38, i32 noundef %39, i1 noundef zeroext %41, i8 noundef signext %42)
  call void @llvm.lifetime.end.p0(i64 1, ptr %9) #11
  call void @llvm.lifetime.end.p0(i64 1, ptr %8) #11
  call void @llvm.lifetime.end.p0(i64 4, ptr %7) #11
  ret ptr %43
}